; ModuleID = 'source-C-CXX/41/519.c'
source_filename = "source-C-CXX/41/519.c"
target datalayout = "e-m:e-p270:32:32-p271:32:32-p272:64:64-i64:64-f80:128-n8:16:32:64-S128"
target triple = "x86_64-pc-linux-gnu"

@.str = private unnamed_addr constant [3 x i8] c"%d\00", align 1
@.str.1 = private unnamed_addr constant [4 x i8] c"%d \00", align 1

; Function Attrs: mustprogress nofree norecurse nosync nounwind sspstrong uwtable willreturn
define dso_local i32 @swap(i32* nocapture %0, i32* nocapture %1) local_unnamed_addr #0 {
  %3 = load i32, i32* %0, align 4, !tbaa !5
  %4 = load i32, i32* %1, align 4, !tbaa !5
  store i32 %4, i32* %0, align 4, !tbaa !5
  store i32 %3, i32* %1, align 4, !tbaa !5
  ret i32 undef
}

; Function Attrs: argmemonly mustprogress nofree nosync nounwind willreturn
declare void @llvm.lifetime.start.p0i8(i64 immarg, i8* nocapture) #1

; Function Attrs: argmemonly mustprogress nofree nosync nounwind willreturn
declare void @llvm.lifetime.end.p0i8(i64 immarg, i8* nocapture) #1

; Function Attrs: nofree nounwind sspstrong uwtable
define dso_local i32 @main() local_unnamed_addr #2 {
  %1 = alloca [100000 x i32], align 16
  %2 = alloca i32, align 4
  %3 = alloca i32, align 4
  %4 = bitcast [100000 x i32]* %1 to i8*
  call void @llvm.lifetime.start.p0i8(i64 400000, i8* nonnull %4) #4
  %5 = bitcast i32* %2 to i8*
  call void @llvm.lifetime.start.p0i8(i64 4, i8* nonnull %5) #4
  %6 = bitcast i32* %3 to i8*
  call void @llvm.lifetime.start.p0i8(i64 4, i8* nonnull %6) #4
  %7 = call i32 (i8*, ...) @__isoc99_scanf(i8* getelementptr inbounds ([3 x i8], [3 x i8]* @.str, i64 0, i64 0), i32* nonnull %2)
  %8 = load i32, i32* %2, align 4, !tbaa !5
  %9 = icmp sgt i32 %8, 0
  br i1 %9, label %10, label %18

10:                                               ; preds = %0, %10
  %11 = phi i64 [ %14, %10 ], [ 0, %0 ]
  %12 = getelementptr inbounds [100000 x i32], [100000 x i32]* %1, i64 0, i64 %11
  %13 = call i32 (i8*, ...) @__isoc99_scanf(i8* getelementptr inbounds ([3 x i8], [3 x i8]* @.str, i64 0, i64 0), i32* nonnull %12)
  %14 = add nuw nsw i64 %11, 1
  %15 = load i32, i32* %2, align 4, !tbaa !5
  %16 = sext i32 %15 to i64
  %17 = icmp slt i64 %14, %16
  br i1 %17, label %10, label %18, !llvm.loop !9

18:                                               ; preds = %10, %0
  %19 = call i32 (i8*, ...) @__isoc99_scanf(i8* getelementptr inbounds ([3 x i8], [3 x i8]* @.str, i64 0, i64 0), i32* nonnull %3)
  %20 = getelementptr inbounds [100000 x i32], [100000 x i32]* %1, i64 0, i64 0
  %21 = load i32, i32* %2, align 4, !tbaa !5
  %22 = sext i32 %21 to i64
  %23 = getelementptr inbounds [100000 x i32], [100000 x i32]* %1, i64 0, i64 %22
  %24 = load i32, i32* %3, align 4
  %25 = icmp sgt i32 %21, 0
  br i1 %25, label %26, label %57

26:                                               ; preds = %18, %43
  %27 = phi i64 [ %44, %43 ], [ 0, %18 ]
  %28 = getelementptr inbounds [100000 x i32], [100000 x i32]* %1, i64 0, i64 %27
  %29 = load i32, i32* %28, align 4, !tbaa !5
  %30 = icmp eq i32 %29, %24
  br i1 %30, label %31, label %40

31:                                               ; preds = %26, %35
  %32 = phi i32* [ %33, %35 ], [ %28, %26 ]
  %33 = getelementptr inbounds i32, i32* %32, i64 1
  %34 = icmp ult i32* %33, %23
  br i1 %34, label %35, label %46

35:                                               ; preds = %31
  %36 = load i32, i32* %33, align 4, !tbaa !5
  %37 = icmp eq i32 %36, %24
  br i1 %37, label %31, label %38, !llvm.loop !11

38:                                               ; preds = %35
  store i32 %36, i32* %28, align 4, !tbaa !5
  store i32 %24, i32* %33, align 4, !tbaa !5
  %39 = load i32, i32* %28, align 4, !tbaa !5
  br label %40

40:                                               ; preds = %38, %26
  %41 = phi i32 [ %39, %38 ], [ %29, %26 ]
  %42 = icmp eq i32 %41, %24
  br i1 %42, label %46, label %43

43:                                               ; preds = %40
  %44 = add nuw nsw i64 %27, 1
  %45 = icmp eq i64 %44, %22
  br i1 %45, label %46, label %26, !llvm.loop !12

46:                                               ; preds = %43, %40, %31
  %47 = phi i64 [ %27, %31 ], [ %27, %40 ], [ %22, %43 ]
  %48 = add nsw i64 %47, -1
  %49 = getelementptr inbounds [100000 x i32], [100000 x i32]* %1, i64 0, i64 %48
  %50 = icmp sgt i64 %47, 1
  br i1 %50, label %51, label %57

51:                                               ; preds = %46, %51
  %52 = phi i32* [ %55, %51 ], [ %20, %46 ]
  %53 = load i32, i32* %52, align 4, !tbaa !5
  %54 = call i32 (i8*, ...) @printf(i8* nonnull dereferenceable(1) getelementptr inbounds ([4 x i8], [4 x i8]* @.str.1, i64 0, i64 0), i32 %53)
  %55 = getelementptr inbounds i32, i32* %52, i64 1
  %56 = icmp ult i32* %55, %49
  br i1 %56, label %51, label %57, !llvm.loop !13

57:                                               ; preds = %51, %18, %46
  %58 = phi i32* [ %20, %46 ], [ %20, %18 ], [ %55, %51 ]
  %59 = load i32, i32* %58, align 4, !tbaa !5
  %60 = call i32 (i8*, ...) @printf(i8* nonnull dereferenceable(1) getelementptr inbounds ([3 x i8], [3 x i8]* @.str, i64 0, i64 0), i32 %59)
  call void @llvm.lifetime.end.p0i8(i64 4, i8* nonnull %6) #4
  call void @llvm.lifetime.end.p0i8(i64 4, i8* nonnull %5) #4
  call void @llvm.lifetime.end.p0i8(i64 400000, i8* nonnull %4) #4
  ret i32 0
}

; Function Attrs: nofree nounwind
declare noundef i32 @__isoc99_scanf(i8* nocapture noundef readonly, ...) local_unnamed_addr #3

; Function Attrs: nofree nounwind
declare noundef i32 @printf(i8* nocapture noundef readonly, ...) local_unnamed_addr #3


!llvm.module.flags = !{!0, !1, !2, !3}
!llvm.ident = !{!4}

!0 = !{i32 1, !"wchar_size", i32 4}
!1 = !{i32 7, !"PIC Level", i32 2}
!2 = !{i32 7, !"PIE Level", i32 2}
!3 = !{i32 7, !"uwtable", i32 1}
!4 = !{!"clang version 13.0.0"}
!5 = !{!6, !6, i64 0}
!6 = !{!"int", !7, i64 0}
!7 = !{!"omnipotent char", !8, i64 0}
!8 = !{!"Simple C/C++ TBAA"}
!9 = distinct !{!9, !10}
!10 = !{!"llvm.loop.mustprogress"}
!11 = distinct !{!11, !10}
!12 = distinct !{!12, !10}
!13 = distinct !{!13, !10}
